target datalayout = "e-m:e-p270:32:32-p271:32:32-p272:64:64-i64:64-i128:128-f80:128-n8:16:32:64-S128"
target triple = "x86_64-unknown-linux-gnu"

%struct.iovec = type { ptr, i64 }

@.str = private unnamed_addr constant [12 x i8] c"offset == 0\00", align 1
@.str.1 = private unnamed_addr constant [19 x i8] c"../qemu/util/iov.c\00", align 1
@__PRETTY_FUNCTION__.iov_memset = private unnamed_addr constant [81 x i8] c"size_t iov_memset(const struct iovec *, const unsigned int, size_t, int, size_t)\00", align 1

; Function Attrs: nounwind sspstrong uwtable
define dso_local i64 @iov_memset(ptr noundef %iov, i32 noundef %iov_cnt, i64 noundef %offset, i32 noundef %fillc, i64 noundef %bytes) #0 {
entry:
  %iov.addr = alloca ptr, align 8
  %iov_cnt.addr = alloca i32, align 4
  %offset.addr = alloca i64, align 8
  %fillc.addr = alloca i32, align 4
  %bytes.addr = alloca i64, align 8
  %done = alloca i64, align 8
  %i = alloca i32, align 4
  %len = alloca i64, align 8
  %_a4 = alloca i64, align 8
  %_b5 = alloca i64, align 8
  %tmp = alloca i64, align 8
  store ptr %iov, ptr %iov.addr, align 8
  store i32 %iov_cnt, ptr %iov_cnt.addr, align 4
  store i64 %offset, ptr %offset.addr, align 8
  store i32 %fillc, ptr %fillc.addr, align 4
  store i64 %bytes, ptr %bytes.addr, align 8
  store i32 0, ptr %i, align 4
  store i64 0, ptr %done, align 8
  br label %for.cond

for.cond:                                         ; preds = %for.inc, %entry
  %0 = load i64, ptr %offset.addr, align 8
  %tobool = icmp ne i64 %0, 0
  br i1 %tobool, label %land.rhs, label %lor.lhs.false

lor.lhs.false:                                    ; preds = %for.cond
  %1 = load i64, ptr %done, align 8
  %2 = load i64, ptr %bytes.addr, align 8
  %cmp = icmp ult i64 %1, %2
  br i1 %cmp, label %land.rhs, label %land.end

land.rhs:                                         ; preds = %lor.lhs.false, %for.cond
  %3 = load i32, ptr %i, align 4
  %4 = load i32, ptr %iov_cnt.addr, align 4
  %cmp1 = icmp ult i32 %3, %4
  br label %land.end

land.end:                                         ; preds = %land.rhs, %lor.lhs.false
  %5 = phi i1 [ false, %lor.lhs.false ], [ %cmp1, %land.rhs ]
  br i1 %5, label %for.body, label %for.end

for.body:                                         ; preds = %land.end
  %6 = load i64, ptr %offset.addr, align 8
  %7 = load ptr, ptr %iov.addr, align 8
  %8 = load i32, ptr %i, align 4
  %idxprom = zext i32 %8 to i64
  %arrayidx = getelementptr %struct.iovec, ptr %7, i64 %idxprom
  %iov_len = getelementptr inbounds %struct.iovec, ptr %arrayidx, i32 0, i32 1
  %9 = load i64, ptr %iov_len, align 8
  %cmp2 = icmp ult i64 %6, %9
  br i1 %cmp2, label %if.then, label %if.else

if.then:                                          ; preds = %for.body
  %10 = load ptr, ptr %iov.addr, align 8
  %11 = load i32, ptr %i, align 4
  %idxprom3 = zext i32 %11 to i64
  %arrayidx4 = getelementptr %struct.iovec, ptr %10, i64 %idxprom3
  %iov_len5 = getelementptr inbounds %struct.iovec, ptr %arrayidx4, i32 0, i32 1
  %12 = load i64, ptr %iov_len5, align 8
  %13 = load i64, ptr %offset.addr, align 8
  %sub = sub i64 %12, %13
  store i64 %sub, ptr %_a4, align 8
  %14 = load i64, ptr %bytes.addr, align 8
  %15 = load i64, ptr %done, align 8
  %sub6 = sub i64 %14, %15
  store i64 %sub6, ptr %_b5, align 8
  %16 = load i64, ptr %_a4, align 8
  %17 = load i64, ptr %_b5, align 8
  %cmp7 = icmp ult i64 %16, %17
  br i1 %cmp7, label %cond.true, label %cond.false

cond.true:                                        ; preds = %if.then
  %18 = load i64, ptr %_a4, align 8
  br label %cond.end

cond.false:                                       ; preds = %if.then
  %19 = load i64, ptr %_b5, align 8
  br label %cond.end

cond.end:                                         ; preds = %cond.false, %cond.true
  %cond = phi i64 [ %18, %cond.true ], [ %19, %cond.false ]
  store i64 %cond, ptr %tmp, align 8
  %20 = load i64, ptr %tmp, align 8
  store i64 %20, ptr %len, align 8
  %21 = load ptr, ptr %iov.addr, align 8
  %22 = load i32, ptr %i, align 4
  %idxprom8 = zext i32 %22 to i64
  %arrayidx9 = getelementptr %struct.iovec, ptr %21, i64 %idxprom8
  %iov_base = getelementptr inbounds %struct.iovec, ptr %arrayidx9, i32 0, i32 0
  %23 = load ptr, ptr %iov_base, align 8
  %24 = load i64, ptr %offset.addr, align 8
  %add.ptr = getelementptr i8, ptr %23, i64 %24
  %25 = load i32, ptr %fillc.addr, align 4
  %26 = trunc i32 %25 to i8
  %27 = load i64, ptr %len, align 8
  call void @llvm.memset.p0.i64(ptr align 1 %add.ptr, i8 %26, i64 %27, i1 false)
  %28 = load i64, ptr %len, align 8
  %29 = load i64, ptr %done, align 8
  %add = add i64 %29, %28
  store i64 %add, ptr %done, align 8
  store i64 0, ptr %offset.addr, align 8
  br label %if.end

if.else:                                          ; preds = %for.body
  %30 = load ptr, ptr %iov.addr, align 8
  %31 = load i32, ptr %i, align 4
  %idxprom10 = zext i32 %31 to i64
  %arrayidx11 = getelementptr %struct.iovec, ptr %30, i64 %idxprom10
  %iov_len12 = getelementptr inbounds %struct.iovec, ptr %arrayidx11, i32 0, i32 1
  %32 = load i64, ptr %iov_len12, align 8
  %33 = load i64, ptr %offset.addr, align 8
  %sub13 = sub i64 %33, %32
  store i64 %sub13, ptr %offset.addr, align 8
  br label %if.end

if.end:                                           ; preds = %if.else, %cond.end
  br label %for.inc

for.inc:                                          ; preds = %if.end
  %34 = load i32, ptr %i, align 4
  %inc = add i32 %34, 1
  store i32 %inc, ptr %i, align 4
  br label %for.cond, !llvm.loop !8

for.end:                                          ; preds = %land.end
  %35 = load i64, ptr %offset.addr, align 8
  %cmp14 = icmp eq i64 %35, 0
  br i1 %cmp14, label %if.then15, label %if.else16

if.then15:                                        ; preds = %for.end
  br label %if.end17

if.else16:                                        ; preds = %for.end
  call void @__assert_fail(ptr noundef @.str, ptr noundef @.str.1, i32 noundef 77, ptr noundef @__PRETTY_FUNCTION__.iov_memset) #9
  unreachable

if.end17:                                         ; preds = %if.then15
  %36 = load i64, ptr %done, align 8
  ret i64 %36
}