; Function Attrs: nounwind sspstrong uwtable
define dso_local i64 @iov_memset(ptr noundef readonly captures(none) %iov, i32 noundef %iov_cnt, i64 noundef %offset, i32 noundef %fillc, i64 noundef %bytes) local_unnamed_addr #0 {
entry:
  %0 = or i64 %offset, %bytes
  %or.cond24 = icmp ne i64 %0, 0
  %cmp125 = icmp ne i32 %iov_cnt, 0
  %or.cond2126 = and i1 %or.cond24, %cmp125
  br i1 %or.cond2126, label %for.body.lr.ph, label %for.end

for.body.lr.ph:                                   ; preds = %entry
  %1 = trunc i32 %fillc to i8
  %2 = zext i32 %iov_cnt to i64
  br label %for.body

for.body:                                         ; preds = %for.body.lr.ph, %for.inc
  %indvars.iv = phi i64 [ 0, %for.body.lr.ph ], [ %indvars.iv.next, %for.inc ]
  %offset.addr.029 = phi i64 [ %offset, %for.body.lr.ph ], [ %offset.addr.1, %for.inc ]
  %done.028 = phi i64 [ 0, %for.body.lr.ph ], [ %done.1, %for.inc ]
  %arrayidx = getelementptr %struct.iovec, ptr %iov, i64 %indvars.iv
  %iov_len = getelementptr inbounds nuw i8, ptr %arrayidx, i64 8
  %3 = load i64, ptr %iov_len, align 8
  %cmp2 = icmp ult i64 %offset.addr.029, %3
  br i1 %cmp2, label %if.then, label %if.else

if.then:                                          ; preds = %for.body
  %sub = sub nuw i64 %3, %offset.addr.029
  %sub6 = sub i64 %bytes, %done.028
  %cond = tail call i64 @llvm.umin.i64(i64 %sub, i64 %sub6)
  %4 = load ptr, ptr %arrayidx, align 8
  %add.ptr = getelementptr i8, ptr %4, i64 %offset.addr.029
  tail call void @llvm.memset.p0.i64(ptr align 1 %add.ptr, i8 %1, i64 %cond, i1 false)
  %add = add i64 %cond, %done.028
  br label %for.inc

if.else:                                          ; preds = %for.body
  %sub13 = sub nuw i64 %offset.addr.029, %3
  br label %for.inc

for.inc:                                          ; preds = %if.then, %if.else
  %done.1 = phi i64 [ %add, %if.then ], [ %done.028, %if.else ]
  %offset.addr.1 = phi i64 [ 0, %if.then ], [ %sub13, %if.else ]
  %indvars.iv.next = add nuw nsw i64 %indvars.iv, 1
  %tobool.not = icmp ne i64 %offset.addr.1, 0
  %cmp = icmp ult i64 %done.1, %bytes
  %or.cond = select i1 %tobool.not, i1 true, i1 %cmp
  %cmp1 = icmp samesign ult i64 %indvars.iv.next, %2
  %or.cond21 = select i1 %or.cond, i1 %cmp1, i1 false
  br i1 %or.cond21, label %for.body, label %for.end, !llvm.loop !8

for.end:                                          ; preds = %for.inc, %entry
  %done.0.lcssa = phi i64 [ 0, %entry ], [ %done.1, %for.inc ]
  %offset.addr.0.lcssa = phi i64 [ %offset, %entry ], [ %offset.addr.1, %for.inc ]
  %cmp14 = icmp eq i64 %offset.addr.0.lcssa, 0
  br i1 %cmp14, label %if.end17, label %if.else16

if.else16:                                        ; preds = %for.end
  tail call void @__assert_fail(ptr noundef nonnull @.str, ptr noundef nonnull @.str.1, i32 noundef 77, ptr noundef nonnull @__PRETTY_FUNCTION__.iov_memset) #17
  unreachable

if.end17:                                         ; preds = %for.end
  ret i64 %done.0.lcssa
}